target datalayout = "e-m:e-p270:32:32-p271:32:32-p272:64:64-i64:64-i128:128-f80:128-n8:16:32:64-S128"
target triple = "x86_64-pc-linux-gnu"

%struct.moveGroupType = type { i32, [7 x i32], [7 x i32], [7 x i32], [7 x i32] }
%class.Moves = type { i32, i32, i32, i32, i32, i32, i32, i32, i32, [13 x %"struct.Moves::trackType"], ptr, [13 x [4 x %struct.movePlyType]], ptr, [13 x [4 x i32]], [13 x %"class.std::__cxx11::basic_string"], [13 x [4 x %"struct.Moves::moveStatType"]], [13 x [4 x %"struct.Moves::moveStatType"]], [13 x [4 x %"struct.Moves::moveStatsType"]], [13 x [4 x %"struct.Moves::moveStatsType"]], %"struct.Moves::moveStatsType", %"struct.Moves::moveStatsType", [16 x { i64, i64 }] }
%"struct.Moves::trackType" = type { i32, i32, [4 x i32], [4 x i32], %struct.trickDataType, [4 x %struct.extCard], [4 x i32], [4 x [4 x i32]], [4 x i32] }
%struct.trickDataType = type { [4 x i32], i32, i32, i32, i32, i32 }
%struct.extCard = type { i32, i32, i32 }
%struct.movePlyType = type { [14 x %struct.moveType], i32, i32 }
%struct.moveType = type { i32, i32, i32, i32 }
%"class.std::__cxx11::basic_string" = type { %"struct.std::__cxx11::basic_string<char>::_Alloc_hider", i64, %union.anon }
%"struct.std::__cxx11::basic_string<char>::_Alloc_hider" = type { ptr }
%union.anon = type { i64, [8 x i8] }
%"struct.Moves::moveStatType" = type { i32, i32, i32, i32 }
%"struct.Moves::moveStatsType" = type { i32, [13 x %"struct.Moves::moveStatType"] }

@bitMapRank = external global [16 x i16], align 16
@groupData = external global [8192 x %struct.moveGroupType], align 16
@counttable = external global [8192 x i32], align 16

; Function Attrs: mustprogress nounwind uwtable
define void @_ZNK5Moves12GetTopNumberEiiRiS0_(ptr noundef nonnull align 8 dereferenceable(39992) %0, i32 noundef %1, i32 noundef %2, ptr noundef nonnull align 4 dereferenceable(4) %3, ptr noundef nonnull align 4 dereferenceable(4) %4) #5 align 2 {
  %6 = alloca ptr, align 8
  %7 = alloca i32, align 4
  %8 = alloca i32, align 4
  %9 = alloca ptr, align 8
  %10 = alloca ptr, align 8
  %11 = alloca ptr, align 8
  %12 = alloca i32, align 4
  %13 = alloca i32, align 4
  %14 = alloca i32, align 4
  store ptr %0, ptr %6, align 8
  store i32 %1, ptr %7, align 4
  store i32 %2, ptr %8, align 4
  store ptr %3, ptr %9, align 8
  store ptr %4, ptr %10, align 8
  %15 = load ptr, ptr %6, align 8
  %16 = load ptr, ptr %9, align 8
  store i32 -10, ptr %16, align 4
  %17 = load ptr, ptr %10, align 8
  store i32 0, ptr %17, align 4
  br label %18

18:                                               ; preds = %39, %5
  %19 = load ptr, ptr %10, align 8
  %20 = load i32, ptr %19, align 4
  %21 = getelementptr inbounds nuw %class.Moves, ptr %15, i32 0, i32 7
  %22 = load i32, ptr %21, align 4
  %23 = sub nsw i32 %22, 1
  %24 = icmp slt i32 %20, %23
  br i1 %24, label %25, label %37

25:                                               ; preds = %18
  %26 = getelementptr inbounds nuw %class.Moves, ptr %15, i32 0, i32 12
  %27 = load ptr, ptr %26, align 8
  %28 = load ptr, ptr %10, align 8
  %29 = load i32, ptr %28, align 4
  %30 = add nsw i32 1, %29
  %31 = sext i32 %30 to i64
  %32 = getelementptr inbounds %struct.moveType, ptr %27, i64 %31
  %33 = getelementptr inbounds nuw %struct.moveType, ptr %32, i32 0, i32 1
  %34 = load i32, ptr %33, align 4
  %35 = load i32, ptr %8, align 4
  %36 = icmp sgt i32 %34, %35
  br label %37

37:                                               ; preds = %25, %18
  %38 = phi i1 [ false, %18 ], [ %36, %25 ]
  br i1 %38, label %39, label %43

39:                                               ; preds = %37
  %40 = load ptr, ptr %10, align 8
  %41 = load i32, ptr %40, align 4
  %42 = add nsw i32 %41, 1
  store i32 %42, ptr %40, align 4
  br label %18, !llvm.loop !74

43:                                               ; preds = %37
  %44 = load i32, ptr %7, align 4
  %45 = sext i32 %44 to i64
  %46 = getelementptr inbounds [8192 x %struct.moveGroupType], ptr @groupData, i64 0, i64 %45
  store ptr %46, ptr %11, align 8
  %47 = load ptr, ptr %11, align 8
  %48 = getelementptr inbounds nuw %struct.moveGroupType, ptr %47, i32 0, i32 0
  %49 = load i32, ptr %48, align 4
  store i32 %49, ptr %12, align 4
  %50 = getelementptr inbounds nuw %class.Moves, ptr %15, i32 0, i32 10
  %51 = load ptr, ptr %50, align 8
  %52 = getelementptr inbounds nuw %"struct.Moves::trackType", ptr %51, i32 0, i32 8
  %53 = getelementptr inbounds nuw %class.Moves, ptr %15, i32 0, i32 1
  %54 = load i32, ptr %53, align 4
  %55 = sext i32 %54 to i64
  %56 = getelementptr inbounds [4 x i32], ptr %52, i64 0, i64 %55
  %57 = load i32, ptr %56, align 4
  %58 = load i32, ptr %8, align 4
  %59 = sext i32 %58 to i64
  %60 = getelementptr inbounds [16 x i16], ptr @bitMapRank, i64 0, i64 %59
  %61 = load i16, ptr %60, align 2
  %62 = zext i16 %61 to i32
  %63 = or i32 %57, %62
  store i32 %63, ptr %13, align 4
  %64 = load ptr, ptr %11, align 8
  %65 = getelementptr inbounds nuw %struct.moveGroupType, ptr %64, i32 0, i32 3
  %66 = load i32, ptr %12, align 4
  %67 = sext i32 %66 to i64
  %68 = getelementptr inbounds [7 x i32], ptr %65, i64 0, i64 %67
  %69 = load i32, ptr %68, align 4
  store i32 %69, ptr %14, align 4
  br label %70

70:                                               ; preds = %91, %43
  %71 = load i32, ptr %12, align 4
  %72 = icmp sge i32 %71, 1
  br i1 %72, label %73, label %89

73:                                               ; preds = %70
  %74 = load ptr, ptr %11, align 8
  %75 = getelementptr inbounds nuw %struct.moveGroupType, ptr %74, i32 0, i32 4
  %76 = load i32, ptr %12, align 4
  %77 = sext i32 %76 to i64
  %78 = getelementptr inbounds [7 x i32], ptr %75, i64 0, i64 %77
  %79 = load i32, ptr %78, align 4
  %80 = load i32, ptr %13, align 4
  %81 = and i32 %79, %80
  %82 = load ptr, ptr %11, align 8
  %83 = getelementptr inbounds nuw %struct.moveGroupType, ptr %82, i32 0, i32 4
  %84 = load i32, ptr %12, align 4
  %85 = sext i32 %84 to i64
  %86 = getelementptr inbounds [7 x i32], ptr %83, i64 0, i64 %85
  %87 = load i32, ptr %86, align 4
  %88 = icmp eq i32 %81, %87
  br label %89

89:                                               ; preds = %73, %70
  %90 = phi i1 [ false, %70 ], [ %88, %73 ]
  br i1 %90, label %91, label %101

91:                                               ; preds = %89
  %92 = load ptr, ptr %11, align 8
  %93 = getelementptr inbounds nuw %struct.moveGroupType, ptr %92, i32 0, i32 3
  %94 = load i32, ptr %12, align 4
  %95 = add nsw i32 %94, -1
  store i32 %95, ptr %12, align 4
  %96 = sext i32 %95 to i64
  %97 = getelementptr inbounds [7 x i32], ptr %93, i64 0, i64 %96
  %98 = load i32, ptr %97, align 4
  %99 = load i32, ptr %14, align 4
  %100 = or i32 %99, %98
  store i32 %100, ptr %14, align 4
  br label %70, !llvm.loop !75

101:                                              ; preds = %89
  %102 = load i32, ptr %14, align 4
  %103 = sext i32 %102 to i64
  %104 = getelementptr inbounds [8192 x i32], ptr @counttable, i64 0, i64 %103
  %105 = load i32, ptr %104, align 4
  %106 = sub nsw i32 %105, 1
  %107 = load ptr, ptr %9, align 8
  store i32 %106, ptr %107, align 4
  ret void
}