; Function Attrs: mustprogress nofree norecurse nosync nounwind memory(read, argmem: readwrite, inaccessiblemem: none) uwtable
define void @_ZNK5Moves12GetTopNumberEiiRiS0_(ptr nocapture noundef nonnull readonly align 8 dereferenceable(39992) %0, i32 noundef %1, i32 noundef %2, ptr nocapture noundef nonnull writeonly align 4 dereferenceable(4) %3, ptr nocapture noundef nonnull writeonly align 4 dereferenceable(4) %4) local_unnamed_addr #6 align 2 {
  store i32 -10, ptr %3, align 4
  %6 = getelementptr inbounds nuw i8, ptr %0, i64 14968
  %7 = getelementptr inbounds nuw i8, ptr %0, i64 28
  br label %8

8:                                                ; preds = %14, %5
  %indvars.iv = phi i64 [ %indvars.iv.next, %14 ], [ 0, %5 ]
  %9 = trunc nuw nsw i64 %indvars.iv to i32
  store i32 %9, ptr %4, align 4
  %10 = load i32, ptr %7, align 4
  %11 = add nsw i32 %10, -1
  %12 = sext i32 %11 to i64
  %13 = icmp slt i64 %indvars.iv, %12
  br i1 %13, label %14, label %.critedge

14:                                               ; preds = %8
  %15 = load ptr, ptr %6, align 8
  %indvars.iv.next = add nuw nsw i64 %indvars.iv, 1
  %16 = getelementptr inbounds %struct.moveType, ptr %15, i64 %indvars.iv.next, i32 1
  %17 = load i32, ptr %16, align 4
  %18 = icmp sgt i32 %17, %2
  br i1 %18, label %8, label %.critedge, !llvm.loop !20

.critedge:                                        ; preds = %8, %14
  %19 = sext i32 %1 to i64
  %20 = getelementptr inbounds [8192 x %struct.moveGroupType], ptr @groupData, i64 0, i64 %19
  %21 = load i32, ptr %20, align 4
  %22 = getelementptr inbounds nuw i8, ptr %0, i64 2896
  %23 = load ptr, ptr %22, align 8
  %24 = getelementptr inbounds nuw i8, ptr %23, i64 204
  %25 = getelementptr inbounds nuw i8, ptr %0, i64 4
  %26 = load i32, ptr %25, align 4
  %27 = sext i32 %26 to i64
  %28 = getelementptr inbounds [4 x i32], ptr %24, i64 0, i64 %27
  %29 = load i32, ptr %28, align 4
  %30 = sext i32 %2 to i64
  %31 = getelementptr inbounds [16 x i16], ptr @bitMapRank, i64 0, i64 %30
  %32 = load i16, ptr %31, align 2
  %33 = zext i16 %32 to i32
  %34 = or i32 %29, %33
  %35 = getelementptr inbounds nuw i8, ptr %20, i64 60
  %36 = sext i32 %21 to i64
  %37 = getelementptr inbounds [7 x i32], ptr %35, i64 0, i64 %36
  %38 = load i32, ptr %37, align 4
  %39 = getelementptr inbounds nuw i8, ptr %20, i64 88
  %40 = icmp sgt i32 %21, 0
  br i1 %40, label %.lr.ph, label %.critedge2

.lr.ph:                                           ; preds = %.critedge, %46
  %.027 = phi i32 [ %51, %46 ], [ %38, %.critedge ]
  %.02426 = phi i32 [ %47, %46 ], [ %21, %.critedge ]
  %41 = zext nneg i32 %.02426 to i64
  %42 = getelementptr inbounds [7 x i32], ptr %39, i64 0, i64 %41
  %43 = load i32, ptr %42, align 4
  %44 = and i32 %43, %34
  %45 = icmp eq i32 %44, %43
  br i1 %45, label %46, label %.critedge2

46:                                               ; preds = %.lr.ph
  %47 = add nsw i32 %.02426, -1
  %48 = zext nneg i32 %47 to i64
  %49 = getelementptr inbounds [7 x i32], ptr %35, i64 0, i64 %48
  %50 = load i32, ptr %49, align 4
  %51 = or i32 %50, %.027
  %52 = icmp sgt i32 %.02426, 1
  br i1 %52, label %.lr.ph, label %.critedge2, !llvm.loop !21

.critedge2:                                       ; preds = %.lr.ph, %46, %.critedge
  %.0.lcssa = phi i32 [ %38, %.critedge ], [ %51, %46 ], [ %.027, %.lr.ph ]
  %53 = sext i32 %.0.lcssa to i64
  %54 = getelementptr inbounds [8192 x i32], ptr @counttable, i64 0, i64 %53
  %55 = load i32, ptr %54, align 4
  %56 = add nsw i32 %55, -1
  store i32 %56, ptr %3, align 4
  ret void
}